target datalayout = "e-m:e-p270:32:32-p271:32:32-p272:64:64-i64:64-i128:128-f80:128-n8:16:32:64-S128"
target triple = "x86_64-pc-linux-gnu"

%struct.ChunkInfo = type { i32, i32, i32 }
%struct.WebPMux = type { ptr, ptr, ptr, ptr, ptr, ptr, ptr, i32, i32 }
%struct.WebPData = type { ptr, i64 }
%struct.WebPChunk = type { i32, i32, %struct.WebPData, ptr }
%struct.WebPMuxImage = type { ptr, ptr, ptr, ptr, i32, i32, i32, i32, ptr }
%struct.WebPMuxFrameInfo = type { %struct.WebPData, i32, i32, i32, i32, i32, i32, [1 x i32] }

@kChunks = external constant [11 x %struct.ChunkInfo], align 16

; Function Attrs: inlinehint nounwind uwtable
define internal void @WebPDataInit(ptr noundef %0) #4 {
  %2 = alloca ptr, align 8
  store ptr %0, ptr %2, align 8, !tbaa !17
  %3 = load ptr, ptr %2, align 8, !tbaa !17
  %4 = icmp ne ptr %3, null
  br i1 %4, label %5, label %7

5:                                                ; preds = %1
  %6 = load ptr, ptr %2, align 8, !tbaa !17
  call void @llvm.memset.p0.i64(ptr align 8 %6, i8 0, i64 16, i1 false)
  br label %7

7:                                                ; preds = %5, %1
  ret void
}

; Function Attrs: inlinehint nounwind uwtable
define internal void @WebPDataClear(ptr noundef %0) #4 {
  %2 = alloca ptr, align 8
  store ptr %0, ptr %2, align 8, !tbaa !17
  %3 = load ptr, ptr %2, align 8, !tbaa !17
  %4 = icmp ne ptr %3, null
  br i1 %4, label %5, label %10

5:                                                ; preds = %1
  %6 = load ptr, ptr %2, align 8, !tbaa !17
  %7 = getelementptr inbounds nuw %struct.WebPData, ptr %6, i32 0, i32 0
  %8 = load ptr, ptr %7, align 8, !tbaa !19
  call void @WebPFree(ptr noundef %8)
  %9 = load ptr, ptr %2, align 8, !tbaa !17
  call void @WebPDataInit(ptr noundef %9)
  br label %10

10:                                               ; preds = %5, %1
  ret void
}

; Function Attrs: nounwind uwtable
define i32 @WebPMuxPushFrame(ptr noundef %0, ptr noundef %1, i32 noundef %2) #0 {
  %4 = alloca i32, align 4
  %5 = alloca ptr, align 8
  %6 = alloca ptr, align 8
  %7 = alloca i32, align 4
  %8 = alloca %struct.WebPMuxImage, align 8
  %9 = alloca i32, align 4
  %10 = alloca i32, align 4
  %11 = alloca ptr, align 8
  %12 = alloca i32, align 4
  %13 = alloca %struct.WebPData, align 8
  %14 = alloca i32, align 4
  %15 = alloca %struct.WebPMuxFrameInfo, align 8
  store ptr %0, ptr %5, align 8, !tbaa !7
  store ptr %1, ptr %6, align 8, !tbaa !31
  store i32 %2, ptr %7, align 4, !tbaa !3
  call void @llvm.lifetime.start.p0(i64 56, ptr %8) #7
  call void @llvm.lifetime.start.p0(i64 4, ptr %9) #7
  %16 = load ptr, ptr %5, align 8, !tbaa !7
  %17 = icmp eq ptr %16, null
  br i1 %17, label %21, label %18

18:                                               ; preds = %3
  %19 = load ptr, ptr %6, align 8, !tbaa !31
  %20 = icmp eq ptr %19, null
  br i1 %20, label %21, label %22

21:                                               ; preds = %18, %3
  store i32 -1, ptr %4, align 4
  store i32 1, ptr %10, align 4
  br label %152

22:                                               ; preds = %18
  %23 = load ptr, ptr %6, align 8, !tbaa !31
  %24 = getelementptr inbounds nuw %struct.WebPMuxFrameInfo, ptr %23, i32 0, i32 4
  %25 = load i32, ptr %24, align 4, !tbaa !33
  %26 = icmp ne i32 %25, 3
  br i1 %26, label %27, label %28

27:                                               ; preds = %22
  store i32 -1, ptr %4, align 4
  store i32 1, ptr %10, align 4
  br label %152

28:                                               ; preds = %22
  %29 = load ptr, ptr %6, align 8, !tbaa !31
  %30 = getelementptr inbounds nuw %struct.WebPMuxFrameInfo, ptr %29, i32 0, i32 0
  %31 = getelementptr inbounds nuw %struct.WebPData, ptr %30, i32 0, i32 0
  %32 = load ptr, ptr %31, align 8, !tbaa !35
  %33 = icmp eq ptr %32, null
  br i1 %33, label %40, label %34

34:                                               ; preds = %28
  %35 = load ptr, ptr %6, align 8, !tbaa !31
  %36 = getelementptr inbounds nuw %struct.WebPMuxFrameInfo, ptr %35, i32 0, i32 0
  %37 = getelementptr inbounds nuw %struct.WebPData, ptr %36, i32 0, i32 1
  %38 = load i64, ptr %37, align 8, !tbaa !36
  %39 = icmp ugt i64 %38, 4294967286
  br i1 %39, label %40, label %41

40:                                               ; preds = %34, %28
  store i32 -1, ptr %4, align 4
  store i32 1, ptr %10, align 4
  br label %152

41:                                               ; preds = %34
  %42 = load ptr, ptr %5, align 8, !tbaa !7
  %43 = getelementptr inbounds nuw %struct.WebPMux, ptr %42, i32 0, i32 0
  %44 = load ptr, ptr %43, align 8, !tbaa !23
  %45 = icmp ne ptr %44, null
  br i1 %45, label %46, label %74

46:                                               ; preds = %41
  call void @llvm.lifetime.start.p0(i64 8, ptr %11) #7
  %47 = load ptr, ptr %5, align 8, !tbaa !7
  %48 = getelementptr inbounds nuw %struct.WebPMux, ptr %47, i32 0, i32 0
  %49 = load ptr, ptr %48, align 8, !tbaa !23
  store ptr %49, ptr %11, align 8, !tbaa !26
  call void @llvm.lifetime.start.p0(i64 4, ptr %12) #7
  %50 = load ptr, ptr %11, align 8, !tbaa !26
  %51 = getelementptr inbounds nuw %struct.WebPMuxImage, ptr %50, i32 0, i32 0
  %52 = load ptr, ptr %51, align 8, !tbaa !37
  %53 = icmp ne ptr %52, null
  br i1 %53, label %54, label %61

54:                                               ; preds = %46
  %55 = load ptr, ptr %11, align 8, !tbaa !26
  %56 = getelementptr inbounds nuw %struct.WebPMuxImage, ptr %55, i32 0, i32 0
  %57 = load ptr, ptr %56, align 8, !tbaa !37
  %58 = getelementptr inbounds nuw %struct.WebPChunk, ptr %57, i32 0, i32 0
  %59 = load i32, ptr %58, align 8, !tbaa !39
  %60 = call i32 @ChunkGetIdFromTag(i32 noundef %59)
  br label %62

61:                                               ; preds = %46
  br label %62

62:                                               ; preds = %61, %54
  %63 = phi i32 [ %60, %54 ], [ 6, %61 ]
  store i32 %63, ptr %12, align 4, !tbaa !3
  %64 = load i32, ptr %12, align 4, !tbaa !3
  %65 = load ptr, ptr %6, align 8, !tbaa !31
  %66 = getelementptr inbounds nuw %struct.WebPMuxFrameInfo, ptr %65, i32 0, i32 4
  %67 = load i32, ptr %66, align 4, !tbaa !33
  %68 = icmp ne i32 %64, %67
  br i1 %68, label %69, label %70

69:                                               ; preds = %62
  store i32 -1, ptr %4, align 4
  store i32 1, ptr %10, align 4
  br label %71

70:                                               ; preds = %62
  store i32 0, ptr %10, align 4
  br label %71

71:                                               ; preds = %70, %69
  call void @llvm.lifetime.end.p0(i64 4, ptr %12) #7
  call void @llvm.lifetime.end.p0(i64 8, ptr %11) #7
  %72 = load i32, ptr %10, align 4
  switch i32 %72, label %152 [
    i32 0, label %73
  ]

73:                                               ; preds = %71
  br label %74

74:                                               ; preds = %73, %41
  call void @MuxImageInit(ptr noundef %8)
  %75 = load ptr, ptr %6, align 8, !tbaa !31
  %76 = getelementptr inbounds nuw %struct.WebPMuxFrameInfo, ptr %75, i32 0, i32 0
  %77 = load i32, ptr %7, align 4, !tbaa !3
  %78 = call i32 @SetAlphaAndImageChunks(ptr noundef %76, i32 noundef %77, ptr noundef %8)
  store i32 %78, ptr %9, align 4, !tbaa !3
  %79 = load i32, ptr %9, align 4, !tbaa !3
  %80 = icmp ne i32 %79, 1
  br i1 %80, label %81, label %82

81:                                               ; preds = %74
  br label %149

82:                                               ; preds = %74
  call void @llvm.lifetime.start.p0(i64 16, ptr %13) #7
  call void @llvm.lifetime.start.p0(i64 4, ptr %14) #7
  %83 = load i32, ptr getelementptr inbounds ([11 x %struct.ChunkInfo], ptr @kChunks, i64 0, i64 3), align 4, !tbaa !29
  store i32 %83, ptr %14, align 4, !tbaa !3
  call void @llvm.lifetime.start.p0(i64 48, ptr %15) #7
  %84 = load ptr, ptr %6, align 8, !tbaa !31
  call void @llvm.memcpy.p0.p0.i64(ptr align 8 %15, ptr align 8 %84, i64 48, i1 false), !tbaa.struct !41
  %85 = getelementptr inbounds nuw %struct.WebPMuxFrameInfo, ptr %15, i32 0, i32 1
  %86 = load i32, ptr %85, align 8, !tbaa !44
  %87 = and i32 %86, -2
  store i32 %87, ptr %85, align 8, !tbaa !44
  %88 = getelementptr inbounds nuw %struct.WebPMuxFrameInfo, ptr %15, i32 0, i32 2
  %89 = load i32, ptr %88, align 4, !tbaa !45
  %90 = and i32 %89, -2
  store i32 %90, ptr %88, align 4, !tbaa !45
  %91 = getelementptr inbounds nuw %struct.WebPMuxFrameInfo, ptr %15, i32 0, i32 1
  %92 = load i32, ptr %91, align 8, !tbaa !44
  %93 = icmp slt i32 %92, 0
  br i1 %93, label %121, label %94

94:                                               ; preds = %82
  %95 = getelementptr inbounds nuw %struct.WebPMuxFrameInfo, ptr %15, i32 0, i32 1
  %96 = load i32, ptr %95, align 8, !tbaa !44
  %97 = icmp sge i32 %96, 16777216
  br i1 %97, label %121, label %98

98:                                               ; preds = %94
  %99 = getelementptr inbounds nuw %struct.WebPMuxFrameInfo, ptr %15, i32 0, i32 2
  %100 = load i32, ptr %99, align 4, !tbaa !45
  %101 = icmp slt i32 %100, 0
  br i1 %101, label %121, label %102

102:                                              ; preds = %98
  %103 = getelementptr inbounds nuw %struct.WebPMuxFrameInfo, ptr %15, i32 0, i32 2
  %104 = load i32, ptr %103, align 4, !tbaa !45
  %105 = icmp sge i32 %104, 16777216
  br i1 %105, label %121, label %106

106:                                              ; preds = %102
  %107 = getelementptr inbounds nuw %struct.WebPMuxFrameInfo, ptr %15, i32 0, i32 3
  %108 = load i32, ptr %107, align 8, !tbaa !46
  %109 = icmp slt i32 %108, 0
  br i1 %109, label %121, label %110

110:                                              ; preds = %106
  %111 = getelementptr inbounds nuw %struct.WebPMuxFrameInfo, ptr %15, i32 0, i32 3
  %112 = load i32, ptr %111, align 8, !tbaa !46
  %113 = icmp sge i32 %112, 16777216
  br i1 %113, label %121, label %114

114:                                              ; preds = %110
  %115 = getelementptr inbounds nuw %struct.WebPMuxFrameInfo, ptr %15, i32 0, i32 5
  %116 = load i32, ptr %115, align 8, !tbaa !47
  %117 = getelementptr inbounds nuw %struct.WebPMuxFrameInfo, ptr %15, i32 0, i32 5
  %118 = load i32, ptr %117, align 8, !tbaa !47
  %119 = and i32 %118, 1
  %120 = icmp ne i32 %116, %119
  br i1 %120, label %121, label %122

121:                                              ; preds = %114, %110, %106, %102, %98, %94, %82
  store i32 -1, ptr %9, align 4, !tbaa !3
  store i32 2, ptr %10, align 4
  br label %139

122:                                              ; preds = %114
  %123 = getelementptr inbounds nuw %struct.WebPMuxImage, ptr %8, i32 0, i32 4
  %124 = load i32, ptr %123, align 8, !tbaa !48
  %125 = getelementptr inbounds nuw %struct.WebPMuxImage, ptr %8, i32 0, i32 5
  %126 = load i32, ptr %125, align 4, !tbaa !49
  %127 = call i32 @CreateFrameData(i32 noundef %124, i32 noundef %126, ptr noundef %15, ptr noundef %13)
  store i32 %127, ptr %9, align 4, !tbaa !3
  %128 = load i32, ptr %9, align 4, !tbaa !3
  %129 = icmp ne i32 %128, 1
  br i1 %129, label %130, label %131

130:                                              ; preds = %122
  store i32 2, ptr %10, align 4
  br label %139

131:                                              ; preds = %122
  %132 = load i32, ptr %14, align 4, !tbaa !3
  %133 = getelementptr inbounds nuw %struct.WebPMuxImage, ptr %8, i32 0, i32 0
  %134 = call i32 @AddDataToChunkList(ptr noundef %13, i32 noundef 1, i32 noundef %132, ptr noundef %133)
  store i32 %134, ptr %9, align 4, !tbaa !3
  call void @WebPDataClear(ptr noundef %13)
  %135 = load i32, ptr %9, align 4, !tbaa !3
  %136 = icmp ne i32 %135, 1
  br i1 %136, label %137, label %138

137:                                              ; preds = %131
  store i32 2, ptr %10, align 4
  br label %139

138:                                              ; preds = %131
  store i32 0, ptr %10, align 4
  br label %139

139:                                              ; preds = %137, %130, %121, %138
  call void @llvm.lifetime.end.p0(i64 48, ptr %15) #7
  call void @llvm.lifetime.end.p0(i64 4, ptr %14) #7
  call void @llvm.lifetime.end.p0(i64 16, ptr %13) #7
  %140 = load i32, ptr %10, align 4
  switch i32 %140, label %152 [
    i32 0, label %141
    i32 2, label %149
  ]

141:                                              ; preds = %139
  %142 = load ptr, ptr %5, align 8, !tbaa !7
  %143 = getelementptr inbounds nuw %struct.WebPMux, ptr %142, i32 0, i32 0
  %144 = call i32 @MuxImagePush(ptr noundef %8, ptr noundef %143)
  store i32 %144, ptr %9, align 4, !tbaa !3
  %145 = load i32, ptr %9, align 4, !tbaa !3
  %146 = icmp ne i32 %145, 1
  br i1 %146, label %147, label %148

147:                                              ; preds = %141
  br label %149

148:                                              ; preds = %141
  store i32 1, ptr %4, align 4
  store i32 1, ptr %10, align 4
  br label %152

149:                                              ; preds = %139, %147, %81
  %150 = call ptr @MuxImageRelease(ptr noundef %8)
  %151 = load i32, ptr %9, align 4, !tbaa !3
  store i32 %151, ptr %4, align 4
  store i32 1, ptr %10, align 4
  br label %152

152:                                              ; preds = %149, %148, %139, %71, %40, %27, %21
  call void @llvm.lifetime.end.p0(i64 4, ptr %9) #7
  call void @llvm.lifetime.end.p0(i64 56, ptr %8) #7
  %153 = load i32, ptr %4, align 4
  ret i32 %153
}